; ModuleID = '38/1487.c'
source_filename = "38/1487.c"
target datalayout = "e-m:e-p270:32:32-p271:32:32-p272:64:64-i64:64-f80:128-n8:16:32:64-S128"
target triple = "x86_64-pc-linux-gnu"

@.str = private unnamed_addr constant [3 x i8] c"%d\00", align 1
@.str.1 = private unnamed_addr constant [4 x i8] c"%lf\00", align 1
@.str.2 = private unnamed_addr constant [6 x i8] c"%.5f\0A\00", align 1

; Function Attrs: noinline nounwind uwtable
define dso_local i32 @main() #0 {
  %1 = alloca i32, align 4
  %2 = alloca i32, align 4
  %3 = alloca i32, align 4
  %4 = alloca i32, align 4
  %5 = alloca [100 x double], align 16
  %6 = alloca i32, align 4
  %7 = alloca double, align 8
  %8 = alloca double, align 8
  %9 = alloca [100 x double], align 16
  %10 = alloca double, align 8
  %11 = alloca double, align 8
  %12 = alloca double, align 8
  store i32 0, i32* %1, align 4
  %13 = call i32 (i8*, ...) @__isoc99_scanf(i8* getelementptr inbounds ([3 x i8], [3 x i8]* @.str, i64 0, i64 0), i32* %2)
  store i32 0, i32* %3, align 4
  br label %14

14:                                               ; preds = %101, %0
  %15 = load i32, i32* %3, align 4
  %16 = load i32, i32* %2, align 4
  %17 = icmp slt i32 %15, %16
  br i1 %17, label %18, label %104

18:                                               ; preds = %14
  %19 = call i32 (i8*, ...) @__isoc99_scanf(i8* getelementptr inbounds ([3 x i8], [3 x i8]* @.str, i64 0, i64 0), i32* %4)
  store i32 0, i32* %6, align 4
  br label %20

20:                                               ; preds = %29, %18
  %21 = load i32, i32* %6, align 4
  %22 = load i32, i32* %4, align 4
  %23 = icmp slt i32 %21, %22
  br i1 %23, label %24, label %32

24:                                               ; preds = %20
  %25 = load i32, i32* %6, align 4
  %26 = sext i32 %25 to i64
  %27 = getelementptr inbounds [100 x double], [100 x double]* %5, i64 0, i64 %26
  %28 = call i32 (i8*, ...) @__isoc99_scanf(i8* getelementptr inbounds ([4 x i8], [4 x i8]* @.str.1, i64 0, i64 0), double* %27)
  br label %29

29:                                               ; preds = %24
  %30 = load i32, i32* %6, align 4
  %31 = add nsw i32 %30, 1
  store i32 %31, i32* %6, align 4
  br label %20

32:                                               ; preds = %20
  store double 0.000000e+00, double* %8, align 8
  store i32 0, i32* %6, align 4
  br label %33

33:                                               ; preds = %44, %32
  %34 = load i32, i32* %6, align 4
  %35 = load i32, i32* %4, align 4
  %36 = icmp slt i32 %34, %35
  br i1 %36, label %37, label %47

37:                                               ; preds = %33
  %38 = load double, double* %8, align 8
  %39 = load i32, i32* %6, align 4
  %40 = sext i32 %39 to i64
  %41 = getelementptr inbounds [100 x double], [100 x double]* %5, i64 0, i64 %40
  %42 = load double, double* %41, align 8
  %43 = fadd double %38, %42
  store double %43, double* %8, align 8
  br label %44

44:                                               ; preds = %37
  %45 = load i32, i32* %6, align 4
  %46 = add nsw i32 %45, 1
  store i32 %46, i32* %6, align 4
  br label %33

47:                                               ; preds = %33
  %48 = load double, double* %8, align 8
  %49 = load i32, i32* %4, align 4
  %50 = sitofp i32 %49 to double
  %51 = fdiv double %48, %50
  store double %51, double* %7, align 8
  %52 = bitcast [100 x double]* %9 to i8*
  call void @llvm.memset.p0i8.i64(i8* align 16 %52, i8 0, i64 800, i1 false)
  store i32 0, i32* %6, align 4
  br label %53

53:                                               ; preds = %74, %47
  %54 = load i32, i32* %6, align 4
  %55 = load i32, i32* %4, align 4
  %56 = icmp slt i32 %54, %55
  br i1 %56, label %57, label %77

57:                                               ; preds = %53
  %58 = load i32, i32* %6, align 4
  %59 = sext i32 %58 to i64
  %60 = getelementptr inbounds [100 x double], [100 x double]* %5, i64 0, i64 %59
  %61 = load double, double* %60, align 8
  %62 = load double, double* %7, align 8
  %63 = fsub double %61, %62
  %64 = load i32, i32* %6, align 4
  %65 = sext i32 %64 to i64
  %66 = getelementptr inbounds [100 x double], [100 x double]* %5, i64 0, i64 %65
  %67 = load double, double* %66, align 8
  %68 = load double, double* %7, align 8
  %69 = fsub double %67, %68
  %70 = fmul double %63, %69
  %71 = load i32, i32* %6, align 4
  %72 = sext i32 %71 to i64
  %73 = getelementptr inbounds [100 x double], [100 x double]* %9, i64 0, i64 %72
  store double %70, double* %73, align 8
  br label %74

74:                                               ; preds = %57
  %75 = load i32, i32* %6, align 4
  %76 = add nsw i32 %75, 1
  store i32 %76, i32* %6, align 4
  br label %53

77:                                               ; preds = %53
  store double 0.000000e+00, double* %10, align 8
  store i32 0, i32* %6, align 4
  br label %78

78:                                               ; preds = %89, %77
  %79 = load i32, i32* %6, align 4
  %80 = load i32, i32* %4, align 4
  %81 = icmp slt i32 %79, %80
  br i1 %81, label %82, label %92

82:                                               ; preds = %78
  %83 = load double, double* %10, align 8
  %84 = load i32, i32* %6, align 4
  %85 = sext i32 %84 to i64
  %86 = getelementptr inbounds [100 x double], [100 x double]* %9, i64 0, i64 %85
  %87 = load double, double* %86, align 8
  %88 = fadd double %83, %87
  store double %88, double* %10, align 8
  br label %89

89:                                               ; preds = %82
  %90 = load i32, i32* %6, align 4
  %91 = add nsw i32 %90, 1
  store i32 %91, i32* %6, align 4
  br label %78

92:                                               ; preds = %78
  %93 = load double, double* %10, align 8
  %94 = load i32, i32* %4, align 4
  %95 = sitofp i32 %94 to double
  %96 = fdiv double %93, %95
  store double %96, double* %11, align 8
  %97 = load double, double* %11, align 8
  %98 = call double @sqrt(double %97) #4
  store double %98, double* %12, align 8
  %99 = load double, double* %12, align 8
  %100 = call i32 (i8*, ...) @printf(i8* getelementptr inbounds ([6 x i8], [6 x i8]* @.str.2, i64 0, i64 0), double %99)
  br label %101

101:                                              ; preds = %92
  %102 = load i32, i32* %3, align 4
  %103 = add nsw i32 %102, 1
  store i32 %103, i32* %3, align 4
  br label %14

104:                                              ; preds = %14
  %105 = load i32, i32* %1, align 4
  ret i32 %105
}

declare dso_local i32 @__isoc99_scanf(i8*, ...) #1

; Function Attrs: argmemonly nounwind willreturn
declare void @llvm.memset.p0i8.i64(i8* nocapture writeonly, i8, i64, i1 immarg) #2

; Function Attrs: nounwind
declare dso_local double @sqrt(double) #3

declare dso_local i32 @printf(i8*, ...) #1


!llvm.module.flags = !{!0}
!llvm.ident = !{!1}

!0 = !{i32 1, !"wchar_size", i32 4}
!1 = !{!"clang version 10.0.0-4ubuntu1 "}
